target datalayout = "e-m:e-p270:32:32-p271:32:32-p272:64:64-i64:64-i128:128-f80:128-n8:16:32:64-S128"
target triple = "x86_64-unknown-linux-gnu"

%"class.hermes::vm::CompressedPointer" = type { %"class.hermes::vm::BasedPointer" }
%"class.hermes::vm::BasedPointer" = type { i32 }
%"class.hermes::vm::HadesGC::OldGen" = type { ptr, %"class.std::deque", %"class.hermes::ExponentialMovingAverage", i64, i64, %"class.hermes::BitArray", %"class.std::deque.4", %"struct.std::array.10", %"struct.hermes::vm::HadesGC::OldGen::SweepIterator" }
%"class.std::deque" = type { %"class.std::_Deque_base" }
%"class.std::_Deque_base" = type { %"struct.std::_Deque_base<hermes::vm::HadesGC::HeapSegment, std::allocator<hermes::vm::HadesGC::HeapSegment>>::_Deque_impl" }
%"struct.std::_Deque_base<hermes::vm::HadesGC::HeapSegment, std::allocator<hermes::vm::HadesGC::HeapSegment>>::_Deque_impl" = type { %"struct.std::_Deque_base<hermes::vm::HadesGC::HeapSegment, std::allocator<hermes::vm::HadesGC::HeapSegment>>::_Deque_impl_data" }
%"struct.std::_Deque_base<hermes::vm::HadesGC::HeapSegment, std::allocator<hermes::vm::HadesGC::HeapSegment>>::_Deque_impl_data" = type { ptr, i64, %"struct.std::_Deque_iterator", %"struct.std::_Deque_iterator" }
%"struct.std::_Deque_iterator" = type { ptr, ptr, ptr, ptr }
%"class.hermes::ExponentialMovingAverage" = type { double, double }
%"class.hermes::BitArray" = type { %"struct.std::array" }
%"struct.std::array" = type { [5 x i64] }
%"class.std::deque.4" = type { %"class.std::_Deque_base.5" }
%"class.std::_Deque_base.5" = type { %"struct.std::_Deque_base<std::array<hermes::vm::HadesGC::OldGen::SegmentBucket, 267>, std::allocator<std::array<hermes::vm::HadesGC::OldGen::SegmentBucket, 267>>>::_Deque_impl" }
%"struct.std::_Deque_base<std::array<hermes::vm::HadesGC::OldGen::SegmentBucket, 267>, std::allocator<std::array<hermes::vm::HadesGC::OldGen::SegmentBucket, 267>>>::_Deque_impl" = type { %"struct.std::_Deque_base<std::array<hermes::vm::HadesGC::OldGen::SegmentBucket, 267>, std::allocator<std::array<hermes::vm::HadesGC::OldGen::SegmentBucket, 267>>>::_Deque_impl_data" }
%"struct.std::_Deque_base<std::array<hermes::vm::HadesGC::OldGen::SegmentBucket, 267>, std::allocator<std::array<hermes::vm::HadesGC::OldGen::SegmentBucket, 267>>>::_Deque_impl_data" = type { ptr, i64, %"struct.std::_Deque_iterator.9", %"struct.std::_Deque_iterator.9" }
%"struct.std::_Deque_iterator.9" = type { ptr, ptr, ptr, ptr }
%"struct.std::array.10" = type { [267 x %"struct.hermes::vm::HadesGC::OldGen::SegmentBucket"] }
%"struct.hermes::vm::HadesGC::OldGen::SegmentBucket" = type <{ ptr, ptr, %"class.hermes::vm::AssignableCompressedPointer", [4 x i8] }>
%"class.hermes::vm::AssignableCompressedPointer" = type { %"class.hermes::vm::CompressedPointer" }
%"struct.hermes::vm::HadesGC::OldGen::SweepIterator" = type { i64, i64, i64 }
%"class.hermes::vm::GCExecTrace" = type { i8 }
%"class.std::shared_ptr" = type { %"class.std::__shared_ptr" }
%"class.std::__shared_ptr" = type { ptr, %"class.std::__shared_count" }
%"class.std::__shared_count" = type { ptr }
%"class.std::function" = type { %"class.std::_Function_base", ptr }
%"class.std::_Function_base" = type { %"union.std::_Any_data", ptr }
%"union.std::_Any_data" = type { %"union.std::_Nocopy_types" }
%"union.std::_Nocopy_types" = type { { i64, i64 } }
%"class.std::vector" = type { %"struct.std::_Vector_base" }
%"struct.std::_Vector_base" = type { %"struct.std::_Vector_base<hermes::vm::GCAnalyticsEvent, std::allocator<hermes::vm::GCAnalyticsEvent>>::_Vector_impl" }
%"struct.std::_Vector_base<hermes::vm::GCAnalyticsEvent, std::allocator<hermes::vm::GCAnalyticsEvent>>::_Vector_impl" = type { %"struct.std::_Vector_base<hermes::vm::GCAnalyticsEvent, std::allocator<hermes::vm::GCAnalyticsEvent>>::_Vector_impl_data" }
%"struct.std::_Vector_base<hermes::vm::GCAnalyticsEvent, std::allocator<hermes::vm::GCAnalyticsEvent>>::_Vector_impl_data" = type { ptr, ptr, ptr }
%"class.std::chrono::time_point" = type { %"class.std::chrono::duration" }
%"class.std::chrono::duration" = type { i64 }
%"class.std::chrono::duration.14" = type { i64 }
%"struct.hermes::vm::GCBase::CumulativeHeapStats" = type { i32, %"class.hermes::StatsAccumulator", %"class.hermes::StatsAccumulator", i32, %"class.hermes::StatsAccumulator.15", %"class.hermes::StatsAccumulator.15" }
%"class.hermes::StatsAccumulator" = type { i32, double, double, double, double }
%"class.hermes::StatsAccumulator.15" = type { i32, i64, i32, i32, double }
%"class.std::__cxx11::basic_string" = type { %"struct.std::__cxx11::basic_string<char>::_Alloc_hider", i64, %union.anon.19 }
%"struct.std::__cxx11::basic_string<char>::_Alloc_hider" = type { ptr }
%union.anon.19 = type { i64, [8 x i8] }
%"class.std::deque.20" = type { %"class.std::_Deque_base.21" }
%"class.std::_Deque_base.21" = type { %"struct.std::_Deque_base<hermes::vm::WeakRefSlot, std::allocator<hermes::vm::WeakRefSlot>>::_Deque_impl" }
%"struct.std::_Deque_base<hermes::vm::WeakRefSlot, std::allocator<hermes::vm::WeakRefSlot>>::_Deque_impl" = type { %"struct.std::_Deque_base<hermes::vm::WeakRefSlot, std::allocator<hermes::vm::WeakRefSlot>>::_Deque_impl_data" }
%"struct.std::_Deque_base<hermes::vm::WeakRefSlot, std::allocator<hermes::vm::WeakRefSlot>>::_Deque_impl_data" = type { ptr, i64, %"struct.std::_Deque_iterator.25", %"struct.std::_Deque_iterator.25" }
%"struct.std::_Deque_iterator.25" = type { ptr, ptr, ptr, ptr }
%"class.std::recursive_mutex" = type { %"class.std::__recursive_mutex_base" }
%"class.std::__recursive_mutex_base" = type { %union.pthread_mutex_t }
%union.pthread_mutex_t = type { %struct.__pthread_mutex_s }
%struct.__pthread_mutex_s = type { i32, i32, i32, i32, i32, i16, i16, %struct.__pthread_internal_list }
%struct.__pthread_internal_list = type { ptr, ptr }
%"class.hermes::vm::GCBase::IDTracker" = type { %"class.std::recursive_mutex", i32, [4 x i8], %"class.llvh::DenseMap", %"class.llvh::DenseMap", %"class.llvh::DenseMap.26", %"class.llvh::DenseMap.29", %"class.llvh::DenseMap", %"class.llvh::DenseMap.32" }
%"class.llvh::DenseMap.26" = type <{ ptr, i32, i32, i32, [4 x i8] }>
%"class.llvh::DenseMap.29" = type <{ ptr, i32, i32, i32, [4 x i8] }>
%"class.llvh::DenseMap" = type <{ ptr, i32, i32, i32, [4 x i8] }>
%"class.llvh::DenseMap.32" = type <{ ptr, i32, i32, i32, [4 x i8] }>
%"class.std::function.35" = type { %"class.std::_Function_base", ptr }
%"class.hermes::vm::HadesGC" = type { %"class.hermes::vm::GCBase.base", i64, i64, %"class.std::vector.38", %"class.std::shared_ptr.43", %"class.hermes::vm::HadesGC::HeapSegment", %"class.hermes::vm::AssignableCompressedPointer", %"class.std::vector.46", double, %"class.hermes::vm::HadesGC::OldGen", %"class.std::recursive_mutex", %"struct.std::atomic", %"class.std::_V2::condition_variable_any", i8, i8, %"class.std::unique_ptr", %"class.std::unique_ptr.56", %"class.std::future", i8, i8, i8, double, %"class.hermes::ExponentialMovingAverage", %"class.std::unique_ptr.67", %"class.std::unique_ptr.67", %"struct.hermes::vm::GCBase::CumulativeHeapStats", %"struct.hermes::vm::GCBase::CumulativeHeapStats", %"class.hermes::ExponentialMovingAverage", i64, %"struct.hermes::vm::HadesGC::CompacteeState", i64, %"struct.hermes::vm::HadesGC::NativeIDs" }
%"class.hermes::vm::GCBase.base" = type <{ ptr, i32, [4 x i8], i64, %"class.hermes::vm::GCExecTrace", [7 x i8], ptr, ptr, %"class.std::shared_ptr", i32, [4 x i8], %"class.std::function", %"class.std::vector", i8, i8, i8, i8, [4 x i8], %"class.std::chrono::time_point", %"class.std::chrono::duration.14", i64, i64, %"struct.hermes::vm::GCBase::CumulativeHeapStats", %"class.std::__cxx11::basic_string", %"class.std::deque.20", ptr, %"class.std::recursive_mutex", %"class.hermes::vm::GCBase::IDTracker", [3 x i64], %"class.std::function.35", i32, i8 }>
%"class.std::vector.38" = type { %"struct.std::_Vector_base.39" }
%"struct.std::_Vector_base.39" = type { %"struct.std::_Vector_base<unsigned long, std::allocator<unsigned long>>::_Vector_impl" }
%"struct.std::_Vector_base<unsigned long, std::allocator<unsigned long>>::_Vector_impl" = type { %"struct.std::_Vector_base<unsigned long, std::allocator<unsigned long>>::_Vector_impl_data" }
%"struct.std::_Vector_base<unsigned long, std::allocator<unsigned long>>::_Vector_impl_data" = type { ptr, ptr, ptr }
%"class.std::shared_ptr.43" = type { %"class.std::__shared_ptr.44" }
%"class.std::__shared_ptr.44" = type { ptr, %"class.std::__shared_count" }
%"class.hermes::vm::HadesGC::HeapSegment" = type { %"class.hermes::vm::AlignedHeapSegment" }
%"class.hermes::vm::AlignedHeapSegment" = type { %"struct.hermes::vm::AlignedStorage", ptr, ptr }
%"struct.hermes::vm::AlignedStorage" = type { ptr, ptr }
%"class.std::vector.46" = type { %"struct.std::_Vector_base.47" }
%"struct.std::_Vector_base.47" = type { %"struct.std::_Vector_base<hermes::vm::GCCell *, std::allocator<hermes::vm::GCCell *>>::_Vector_impl" }
%"struct.std::_Vector_base<hermes::vm::GCCell *, std::allocator<hermes::vm::GCCell *>>::_Vector_impl" = type { %"struct.std::_Vector_base<hermes::vm::GCCell *, std::allocator<hermes::vm::GCCell *>>::_Vector_impl_data" }
%"struct.std::_Vector_base<hermes::vm::GCCell *, std::allocator<hermes::vm::GCCell *>>::_Vector_impl_data" = type { ptr, ptr, ptr }
%"struct.std::atomic" = type { %"struct.std::__atomic_base" }
%"struct.std::__atomic_base" = type { i8 }
%"class.std::_V2::condition_variable_any" = type { %"class.std::condition_variable", %"class.std::shared_ptr.51" }
%"class.std::condition_variable" = type { %"class.std::__condvar" }
%"class.std::__condvar" = type { %union.pthread_cond_t }
%union.pthread_cond_t = type { %struct.__pthread_cond_s }
%struct.__pthread_cond_s = type { %union.__atomic_wide_counter, %union.__atomic_wide_counter, [2 x i32], [2 x i32], i32, i32, [2 x i32] }
%union.__atomic_wide_counter = type { i64 }
%"class.std::shared_ptr.51" = type { %"class.std::__shared_ptr.52" }
%"class.std::__shared_ptr.52" = type { ptr, %"class.std::__shared_count" }
%"class.std::unique_ptr" = type { %"struct.std::__uniq_ptr_data" }
%"struct.std::__uniq_ptr_data" = type { %"class.std::__uniq_ptr_impl" }
%"class.std::__uniq_ptr_impl" = type { %"class.std::tuple" }
%"class.std::tuple" = type { %"struct.std::_Tuple_impl" }
%"struct.std::_Tuple_impl" = type { %"struct.std::_Head_base.55" }
%"struct.std::_Head_base.55" = type { ptr }
%"class.std::unique_ptr.56" = type { %"struct.std::__uniq_ptr_data.57" }
%"struct.std::__uniq_ptr_data.57" = type { %"class.std::__uniq_ptr_impl.58" }
%"class.std::__uniq_ptr_impl.58" = type { %"class.std::tuple.59" }
%"class.std::tuple.59" = type { %"struct.std::_Tuple_impl.60" }
%"struct.std::_Tuple_impl.60" = type { %"struct.std::_Head_base.63" }
%"struct.std::_Head_base.63" = type { ptr }
%"class.std::future" = type { %"class.std::__basic_future" }
%"class.std::__basic_future" = type { %"class.std::shared_ptr.64" }
%"class.std::shared_ptr.64" = type { %"class.std::__shared_ptr.65" }
%"class.std::__shared_ptr.65" = type { ptr, %"class.std::__shared_count" }
%"class.std::unique_ptr.67" = type { %"struct.std::__uniq_ptr_data.68" }
%"struct.std::__uniq_ptr_data.68" = type { %"class.std::__uniq_ptr_impl.69" }
%"class.std::__uniq_ptr_impl.69" = type { %"class.std::tuple.70" }
%"class.std::tuple.70" = type { %"struct.std::_Tuple_impl.71" }
%"struct.std::_Tuple_impl.71" = type { %"struct.std::_Head_base.74" }
%"struct.std::_Head_base.74" = type { ptr }
%"struct.hermes::vm::HadesGC::CompacteeState" = type { ptr, %"class.hermes::vm::AssignableCompressedPointer", ptr, %"class.hermes::vm::AssignableCompressedPointer", %"class.std::shared_ptr.75" }
%"class.std::shared_ptr.75" = type { %"class.std::__shared_ptr.76" }
%"class.std::__shared_ptr.76" = type { ptr, %"class.std::__shared_count" }
%"struct.hermes::vm::HadesGC::NativeIDs" = type { i32, i32 }
%"class.std::error_code" = type { i32, ptr }
%"class.std::allocator.16" = type { i8 }
%"struct.hermes::vm::AllocResult" = type { ptr, i8 }

@_ZN6hermes2vm6GCBase25kNaturalCauseForAnalyticsE = external constant [0 x i8], align 1
@.str.25 = private unnamed_addr constant [50 x i8] c"basic_string: construction from null is not valid\00", align 1

; Function Attrs: mustprogress nounwind uwtable
define linkonce_odr hidden noundef ptr @_ZNK6hermes2vm18AlignedHeapSegment12effectiveEndEv(ptr noundef nonnull align 8 dereferenceable(32) %this) #0 comdat align 2 {
entry:
  %this.addr = alloca ptr, align 8
  store ptr %this, ptr %this.addr, align 8
  %this1 = load ptr, ptr %this.addr, align 8
  %effectiveEnd_ = getelementptr inbounds %"class.hermes::vm::AlignedHeapSegment", ptr %this1, i32 0, i32 2
  %0 = load ptr, ptr %effectiveEnd_, align 8
  ret ptr %0
}

; Function Attrs: mustprogress nounwind uwtable
define linkonce_odr noundef i64 @_ZNSt11char_traitsIcE6lengthEPKc(ptr noundef %__s) #0 comdat align 2 {
entry:
  %__s.addr = alloca ptr, align 8
  store ptr %__s, ptr %__s.addr, align 8
  %0 = load ptr, ptr %__s.addr, align 8
  %call = call i64 @strlen(ptr noundef %0) #18
  ret i64 %call
}

; Function Attrs: mustprogress nounwind uwtable
define linkonce_odr hidden { ptr, i8 } @_ZN6hermes2vm18AlignedHeapSegment5allocEj(ptr noundef nonnull align 8 dereferenceable(32) %this, i32 noundef %size) #0 comdat align 2 {
entry:
  %retval = alloca %"struct.hermes::vm::AllocResult", align 8
  %this.addr = alloca ptr, align 8
  %size.addr = alloca i32, align 4
  %cellPtr = alloca ptr, align 8
  %newLevel = alloca ptr, align 8
  %cell = alloca ptr, align 8
  store ptr %this, ptr %this.addr, align 8
  store i32 %size, ptr %size.addr, align 4
  %this1 = load ptr, ptr %this.addr, align 8
  %level_ = getelementptr inbounds %"class.hermes::vm::AlignedHeapSegment", ptr %this1, i32 0, i32 1
  %0 = load ptr, ptr %level_, align 8
  %1 = load i32, ptr %size.addr, align 4
  %idx.ext = zext i32 %1 to i64
  %add.ptr = getelementptr inbounds i8, ptr %0, i64 %idx.ext
  store ptr %add.ptr, ptr %newLevel, align 8
  %2 = load ptr, ptr %newLevel, align 8
  %call = call noundef ptr @_ZNK6hermes2vm18AlignedHeapSegment12effectiveEndEv(ptr noundef nonnull align 8 dereferenceable(32) %this1)
  %cmp = icmp ugt ptr %2, %call
  br i1 %cmp, label %if.then, label %if.end

if.then:                                          ; preds = %entry
  %ptr = getelementptr inbounds %"struct.hermes::vm::AllocResult", ptr %retval, i32 0, i32 0
  store ptr null, ptr %ptr, align 8
  %success = getelementptr inbounds %"struct.hermes::vm::AllocResult", ptr %retval, i32 0, i32 1
  store i8 0, ptr %success, align 8
  br label %return

if.end:                                           ; preds = %entry
  %level_2 = getelementptr inbounds %"class.hermes::vm::AlignedHeapSegment", ptr %this1, i32 0, i32 1
  %3 = load ptr, ptr %level_2, align 8
  store ptr %3, ptr %cellPtr, align 8
  %4 = load ptr, ptr %newLevel, align 8
  %level_3 = getelementptr inbounds %"class.hermes::vm::AlignedHeapSegment", ptr %this1, i32 0, i32 1
  store ptr %4, ptr %level_3, align 8
  %5 = load ptr, ptr %cellPtr, align 8
  store ptr %5, ptr %cell, align 8
  %ptr4 = getelementptr inbounds %"struct.hermes::vm::AllocResult", ptr %retval, i32 0, i32 0
  %6 = load ptr, ptr %cell, align 8
  store ptr %6, ptr %ptr4, align 8
  %success5 = getelementptr inbounds %"struct.hermes::vm::AllocResult", ptr %retval, i32 0, i32 1
  store i8 1, ptr %success5, align 8
  br label %return

return:                                           ; preds = %if.end, %if.then
  %7 = load { ptr, i8 }, ptr %retval, align 8
  ret { ptr, i8 } %7
}

; Function Attrs: mustprogress nounwind uwtable
define linkonce_odr hidden noundef nonnull align 8 dereferenceable(32) ptr @_ZN6hermes2vm7HadesGC8youngGenEv(ptr noundef nonnull align 8 dereferenceable(8152) %this) #0 comdat align 2 {
entry:
  %this.addr = alloca ptr, align 8
  store ptr %this, ptr %this.addr, align 8
  %this1 = load ptr, ptr %this.addr, align 8
  %youngGen_ = getelementptr inbounds %"class.hermes::vm::HadesGC", ptr %this1, i32 0, i32 5
  ret ptr %youngGen_
}

; Function Attrs: mustprogress nounwind uwtable
define linkonce_odr void @_ZNSt7__cxx1112basic_stringIcSt11char_traitsIcESaIcEEC2IS3_EEPKcRKS3_(ptr noundef nonnull align 8 dereferenceable(32) %this, ptr noundef %__s, ptr noundef nonnull align 1 dereferenceable(1) %__a) unnamed_addr #0 comdat align 2 {
entry:
  %this.addr = alloca ptr, align 8
  %__s.addr = alloca ptr, align 8
  %__a.addr = alloca ptr, align 8
  %__end = alloca ptr, align 8
  store ptr %this, ptr %this.addr, align 8
  store ptr %__s, ptr %__s.addr, align 8
  store ptr %__a, ptr %__a.addr, align 8
  %this1 = load ptr, ptr %this.addr, align 8
  %_M_dataplus = getelementptr inbounds %"class.std::__cxx11::basic_string", ptr %this1, i32 0, i32 0
  %call = call noundef ptr @_ZNSt7__cxx1112basic_stringIcSt11char_traitsIcESaIcEE13_M_local_dataEv(ptr noundef nonnull align 8 dereferenceable(32) %this1)
  %0 = load ptr, ptr %__a.addr, align 8
  call void @_ZNSt7__cxx1112basic_stringIcSt11char_traitsIcESaIcEE12_Alloc_hiderC1EPcRKS3_(ptr noundef nonnull align 8 dereferenceable(8) %_M_dataplus, ptr noundef %call, ptr noundef nonnull align 1 dereferenceable(1) %0)
  %1 = load ptr, ptr %__s.addr, align 8
  %cmp = icmp eq ptr %1, null
  br i1 %cmp, label %if.then, label %if.end

if.then:                                          ; preds = %entry
  call void @_ZSt19__throw_logic_errorPKc(ptr noundef @.str.25) #21
  unreachable

if.end:                                           ; preds = %entry
  %2 = load ptr, ptr %__s.addr, align 8
  %3 = load ptr, ptr %__s.addr, align 8
  %call2 = call noundef i64 @_ZNSt11char_traitsIcE6lengthEPKc(ptr noundef %3)
  %add.ptr = getelementptr inbounds i8, ptr %2, i64 %call2
  store ptr %add.ptr, ptr %__end, align 8
  %4 = load ptr, ptr %__s.addr, align 8
  %5 = load ptr, ptr %__end, align 8
  call void @_ZNSt7__cxx1112basic_stringIcSt11char_traitsIcESaIcEE12_M_constructIPKcEEvT_S8_St20forward_iterator_tag(ptr noundef nonnull align 8 dereferenceable(32) %this1, ptr noundef %4, ptr noundef %5)
  ret void
}

; Function Attrs: mustprogress nounwind uwtable
define hidden noundef ptr @_ZN6hermes2vm7HadesGC9allocSlowEj(ptr noundef nonnull align 8 dereferenceable(8152) %this, i32 noundef %sz) #0 align 2 {
entry:
  %retval = alloca ptr, align 8
  %this.addr = alloca ptr, align 8
  %sz.addr = alloca i32, align 4
  %res = alloca %"struct.hermes::vm::AllocResult", align 8
  %agg.tmp = alloca %"class.std::__cxx11::basic_string", align 8
  %ref.tmp = alloca %"class.std::allocator.16", align 1
  %ref.tmp2 = alloca %"struct.hermes::vm::AllocResult", align 8
  %ref.tmp5 = alloca %"struct.hermes::vm::AllocResult", align 8
  %agg.tmp13 = alloca %"class.std::error_code", align 8
  store ptr %this, ptr %this.addr, align 8
  store i32 %sz, ptr %sz.addr, align 4
  %this1 = load ptr, ptr %this.addr, align 8
  call void @_ZNSaIcEC1Ev(ptr noundef nonnull align 1 dereferenceable(1) %ref.tmp) #18
  call void @_ZNSt7__cxx1112basic_stringIcSt11char_traitsIcESaIcEEC2IS3_EEPKcRKS3_(ptr noundef nonnull align 8 dereferenceable(32) %agg.tmp, ptr noundef @_ZN6hermes2vm6GCBase25kNaturalCauseForAnalyticsE, ptr noundef nonnull align 1 dereferenceable(1) %ref.tmp)
  call void @_ZN6hermes2vm7HadesGC18youngGenCollectionENSt7__cxx1112basic_stringIcSt11char_traitsIcESaIcEEEb(ptr noundef nonnull align 8 dereferenceable(8152) %this1, ptr noundef %agg.tmp, i1 noundef zeroext false)
  call void @_ZNSt7__cxx1112basic_stringIcSt11char_traitsIcESaIcEED1Ev(ptr noundef nonnull align 8 dereferenceable(32) %agg.tmp) #18
  call void @_ZNSaIcED1Ev(ptr noundef nonnull align 1 dereferenceable(1) %ref.tmp) #18
  %call = call noundef nonnull align 8 dereferenceable(32) ptr @_ZN6hermes2vm7HadesGC8youngGenEv(ptr noundef nonnull align 8 dereferenceable(8152) %this1)
  %0 = load i32, ptr %sz.addr, align 4
  %call3 = call { ptr, i8 } @_ZN6hermes2vm18AlignedHeapSegment5allocEj(ptr noundef nonnull align 8 dereferenceable(32) %call, i32 noundef %0)
  %1 = getelementptr inbounds { ptr, i8 }, ptr %ref.tmp2, i32 0, i32 0
  %2 = extractvalue { ptr, i8 } %call3, 0
  store ptr %2, ptr %1, align 8
  %3 = getelementptr inbounds { ptr, i8 }, ptr %ref.tmp2, i32 0, i32 1
  %4 = extractvalue { ptr, i8 } %call3, 1
  store i8 %4, ptr %3, align 8
  call void @llvm.memcpy.p0.p0.i64(ptr align 8 %res, ptr align 8 %ref.tmp2, i64 16, i1 false)
  %success = getelementptr inbounds %"struct.hermes::vm::AllocResult", ptr %res, i32 0, i32 1
  %5 = load i8, ptr %success, align 8
  %tobool = trunc i8 %5 to i1
  br i1 %tobool, label %if.then, label %if.end

if.then:                                          ; preds = %entry
  %ptr = getelementptr inbounds %"struct.hermes::vm::AllocResult", ptr %res, i32 0, i32 0
  %6 = load ptr, ptr %ptr, align 8
  store ptr %6, ptr %retval, align 8
  br label %return

if.end:                                           ; preds = %entry
  %call4 = call noundef nonnull align 8 dereferenceable(32) ptr @_ZN6hermes2vm7HadesGC8youngGenEv(ptr noundef nonnull align 8 dereferenceable(8152) %this1)
  call void @_ZN6hermes2vm18AlignedHeapSegment25clearExternalMemoryChargeEv(ptr noundef nonnull align 8 dereferenceable(32) %call4)
  %call6 = call noundef nonnull align 8 dereferenceable(32) ptr @_ZN6hermes2vm7HadesGC8youngGenEv(ptr noundef nonnull align 8 dereferenceable(8152) %this1)
  %7 = load i32, ptr %sz.addr, align 4
  %call7 = call { ptr, i8 } @_ZN6hermes2vm18AlignedHeapSegment5allocEj(ptr noundef nonnull align 8 dereferenceable(32) %call6, i32 noundef %7)
  %8 = getelementptr inbounds { ptr, i8 }, ptr %ref.tmp5, i32 0, i32 0
  %9 = extractvalue { ptr, i8 } %call7, 0
  store ptr %9, ptr %8, align 8
  %10 = getelementptr inbounds { ptr, i8 }, ptr %ref.tmp5, i32 0, i32 1
  %11 = extractvalue { ptr, i8 } %call7, 1
  store i8 %11, ptr %10, align 8
  call void @llvm.memcpy.p0.p0.i64(ptr align 8 %res, ptr align 8 %ref.tmp5, i64 16, i1 false)
  %success8 = getelementptr inbounds %"struct.hermes::vm::AllocResult", ptr %res, i32 0, i32 1
  %12 = load i8, ptr %success8, align 8
  %tobool9 = trunc i8 %12 to i1
  br i1 %tobool9, label %if.then10, label %if.end12

if.then10:                                        ; preds = %if.end
  %ptr11 = getelementptr inbounds %"struct.hermes::vm::AllocResult", ptr %res, i32 0, i32 0
  %13 = load ptr, ptr %ptr11, align 8
  store ptr %13, ptr %retval, align 8
  br label %return

if.end12:                                         ; preds = %if.end
  %call14 = call { i32, ptr } @_ZN6hermes15make_error_codeENS_8OOMErrorE(i32 noundef 4)
  %14 = getelementptr inbounds { i32, ptr }, ptr %agg.tmp13, i32 0, i32 0
  %15 = extractvalue { i32, ptr } %call14, 0
  store i32 %15, ptr %14, align 8
  %16 = getelementptr inbounds { i32, ptr }, ptr %agg.tmp13, i32 0, i32 1
  %17 = extractvalue { i32, ptr } %call14, 1
  store ptr %17, ptr %16, align 8
  %18 = getelementptr inbounds { i32, ptr }, ptr %agg.tmp13, i32 0, i32 0
  %19 = load i32, ptr %18, align 8
  %20 = getelementptr inbounds { i32, ptr }, ptr %agg.tmp13, i32 0, i32 1
  %21 = load ptr, ptr %20, align 8
  call void @_ZN6hermes2vm6GCBase3oomESt10error_code(ptr noundef nonnull align 8 dereferenceable(741) %this1, i32 %19, ptr %21) #21
  unreachable

return:                                           ; preds = %if.then10, %if.then
  %22 = load ptr, ptr %retval, align 8
  ret ptr %22
}