; Function Attrs: mustprogress nounwind uwtable
define hidden noundef ptr @_ZN6hermes2vm7HadesGC9allocSlowEj(ptr noundef nonnull align 8 dereferenceable(8152) %this, i32 noundef %sz) local_unnamed_addr #4 align 2 {
entry:
  %agg.tmp = alloca %"class.std::__cxx11::basic_string", align 8
  %ref.tmp = alloca %"class.std::allocator.16", align 1
  call void @_ZNSaIcEC1Ev(ptr noundef nonnull align 1 dereferenceable(1) %ref.tmp) #34
  %call.i = call noundef ptr @_ZNSt7__cxx1112basic_stringIcSt11char_traitsIcESaIcEE13_M_local_dataEv(ptr noundef nonnull align 8 dereferenceable(32) %agg.tmp) #34
  call void @_ZNSt7__cxx1112basic_stringIcSt11char_traitsIcESaIcEE12_Alloc_hiderC1EPcRKS3_(ptr noundef nonnull align 8 dereferenceable(8) %agg.tmp, ptr noundef %call.i, ptr noundef nonnull align 1 dereferenceable(1) %ref.tmp) #34
  %call.i.i = call noundef i64 @strlen(ptr noundef nonnull dereferenceable(1) @_ZN6hermes2vm6GCBase25kNaturalCauseForAnalyticsE) #34
  %add.ptr.i = getelementptr inbounds i8, ptr @_ZN6hermes2vm6GCBase25kNaturalCauseForAnalyticsE, i64 %call.i.i
  call void @_ZNSt7__cxx1112basic_stringIcSt11char_traitsIcESaIcEE12_M_constructIPKcEEvT_S8_St20forward_iterator_tag(ptr noundef nonnull align 8 dereferenceable(32) %agg.tmp, ptr noundef nonnull @_ZN6hermes2vm6GCBase25kNaturalCauseForAnalyticsE, ptr noundef nonnull %add.ptr.i)
  call void @_ZN6hermes2vm7HadesGC18youngGenCollectionENSt7__cxx1112basic_stringIcSt11char_traitsIcESaIcEEEb(ptr noundef nonnull align 8 dereferenceable(8152) %this, ptr noundef nonnull %agg.tmp, i1 noundef zeroext false)
  call void @_ZNSt7__cxx1112basic_stringIcSt11char_traitsIcESaIcEED1Ev(ptr noundef nonnull align 8 dereferenceable(32) %agg.tmp) #34
  call void @_ZNSaIcED1Ev(ptr noundef nonnull align 1 dereferenceable(1) %ref.tmp) #34
  %level_.i = getelementptr inbounds i8, ptr %this, i64 816
  %0 = load ptr, ptr %level_.i, align 8
  %idx.ext.i = zext i32 %sz to i64
  %add.ptr.i4 = getelementptr inbounds i8, ptr %0, i64 %idx.ext.i
  %effectiveEnd_.i.i = getelementptr inbounds i8, ptr %this, i64 824
  %1 = load ptr, ptr %effectiveEnd_.i.i, align 8
  %cmp.i = icmp ugt ptr %add.ptr.i4, %1
  br i1 %cmp.i, label %if.end, label %return

if.end:                                           ; preds = %entry
  %youngGen_.i = getelementptr inbounds i8, ptr %this, i64 800
  call void @_ZN6hermes2vm18AlignedHeapSegment25clearExternalMemoryChargeEv(ptr noundef nonnull align 8 dereferenceable(32) %youngGen_.i) #34
  %2 = load ptr, ptr %level_.i, align 8
  %add.ptr.i9 = getelementptr inbounds i8, ptr %2, i64 %idx.ext.i
  %3 = load ptr, ptr %effectiveEnd_.i.i, align 8
  %cmp.i11 = icmp ugt ptr %add.ptr.i9, %3
  br i1 %cmp.i11, label %if.end12, label %return

if.end12:                                         ; preds = %if.end
  %call14 = call { i32, ptr } @_ZN6hermes15make_error_codeENS_8OOMErrorE(i32 noundef 4) #34
  %4 = extractvalue { i32, ptr } %call14, 0
  %5 = extractvalue { i32, ptr } %call14, 1
  call void @_ZN6hermes2vm6GCBase3oomESt10error_code(ptr noundef nonnull align 8 dereferenceable(741) %this, i32 %4, ptr %5) #36
  unreachable

return:                                           ; preds = %if.end, %entry
  %storemerge = phi ptr [ %add.ptr.i4, %entry ], [ %add.ptr.i9, %if.end ]
  %.pn29 = phi ptr [ %0, %entry ], [ %2, %if.end ]
  store ptr %storemerge, ptr %level_.i, align 8
  ret ptr %.pn29
}